target datalayout = "e-m:e-p270:32:32-p271:32:32-p272:64:64-i64:64-i128:128-f80:128-n8:16:32:64-S128"
target triple = "x86_64-unknown-linux-gnu"

%"class.std::__shared_count" = type { ptr }
%"class.rocksdb::StackableDB" = type { %"class.rocksdb::DB", ptr, %"class.std::shared_ptr.18" }
%"class.rocksdb::DB" = type { ptr }
%"class.std::shared_ptr.18" = type { %"class.std::__shared_ptr.19" }
%"class.std::__shared_ptr.19" = type { ptr, %"class.std::__shared_count" }
%"class.std::chrono::duration" = type { i64 }
%"class.std::_Function_base" = type { %"union.std::_Any_data", ptr }
%"union.std::_Any_data" = type { %"union.std::_Nocopy_types" }
%"union.std::_Nocopy_types" = type { { i64, i64 } }
%"struct.rocksdb::ReadOptions" = type <{ ptr, ptr, ptr, %"class.std::chrono::duration", %"class.std::chrono::duration", i32, i32, i64, %"class.std::optional", i8, i8, i8, i8, i8, [3 x i8], i64, i64, ptr, ptr, i8, i8, i8, i8, i8, i8, i8, i8, %"class.std::function.666", i8, i8, [6 x i8] }>
%"class.std::optional" = type { %"struct.std::_Optional_base" }
%"struct.std::_Optional_base" = type { %"struct.std::_Optional_payload" }
%"struct.std::_Optional_payload" = type { %"struct.std::_Optional_payload_base.base", [7 x i8] }
%"struct.std::_Optional_payload_base.base" = type <{ %"union.std::_Optional_payload_base<unsigned long>::_Storage", i8 }>
%"union.std::_Optional_payload_base<unsigned long>::_Storage" = type { i64 }
%"class.std::function.666" = type { %"class.std::_Function_base", ptr }

; Function Attrs: mustprogress uwtable
define noundef zeroext i1 @_ZN7rocksdb7blob_db10BlobDBImpl19SetSnapshotIfNeededEPNS_11ReadOptionsE(ptr noundef nonnull align 8 dereferenceable(2448) %this, ptr noundef %read_options) #0 align 2 {
entry:
  %retval = alloca i1, align 1
  %this.addr = alloca ptr, align 8
  %read_options.addr = alloca ptr, align 8
  store ptr %this, ptr %this.addr, align 8
  store ptr %read_options, ptr %read_options.addr, align 8
  %this1 = load ptr, ptr %this.addr, align 8
  %0 = load ptr, ptr %read_options.addr, align 8
  %snapshot = getelementptr inbounds %"struct.rocksdb::ReadOptions", ptr %0, i32 0, i32 0
  %1 = load ptr, ptr %snapshot, align 8
  %cmp = icmp ne ptr %1, null
  br i1 %cmp, label %if.then, label %if.end

if.then:                                          ; preds = %entry
  store i1 false, ptr %retval, align 1
  br label %return

if.end:                                           ; preds = %entry
  %db_ = getelementptr inbounds %"class.rocksdb::StackableDB", ptr %this1, i32 0, i32 1
  %2 = load ptr, ptr %db_, align 8
  %vtable = load ptr, ptr %2, align 8
  %vfn = getelementptr inbounds ptr, ptr %vtable, i64 59
  %3 = load ptr, ptr %vfn, align 8
  %call = call noundef ptr %3(ptr noundef nonnull align 8 dereferenceable(8) %2)
  %4 = load ptr, ptr %read_options.addr, align 8
  %snapshot2 = getelementptr inbounds %"struct.rocksdb::ReadOptions", ptr %4, i32 0, i32 0
  store ptr %call, ptr %snapshot2, align 8
  store i1 true, ptr %retval, align 1
  br label %return

return:                                           ; preds = %if.end, %if.then
  %5 = load i1, ptr %retval, align 1
  ret i1 %5
}