; Function Attrs: mustprogress uwtable
define noundef zeroext i1 @_ZN7rocksdb7blob_db10BlobDBImpl19SetSnapshotIfNeededEPNS_11ReadOptionsE(ptr nocapture noundef nonnull readonly align 8 dereferenceable(2448) %this, ptr nocapture noundef %read_options) local_unnamed_addr #3 align 2 {
entry:
  %0 = load ptr, ptr %read_options, align 8
  %cmp.not = icmp eq ptr %0, null
  br i1 %cmp.not, label %if.end, label %return

if.end:                                           ; preds = %entry
  %db_ = getelementptr inbounds i8, ptr %this, i64 8
  %1 = load ptr, ptr %db_, align 8
  %vtable = load ptr, ptr %1, align 8
  %vfn = getelementptr inbounds i8, ptr %vtable, i64 472
  %2 = load ptr, ptr %vfn, align 8
  %call = tail call noundef ptr %2(ptr noundef nonnull align 8 dereferenceable(8) %1)
  store ptr %call, ptr %read_options, align 8
  br label %return

return:                                           ; preds = %entry, %if.end
  ret i1 %cmp.not
}